; Function Attrs: nounwind uwtable
define noalias nonnull ptr @l_Lean_ScopedEnvExtension_instInhabitedDescr___rarg(ptr noundef %0) #2 {
  tail call void @lean_inc_heartbeat() #7
  %2 = tail call noalias ptr @mi_malloc_small(i64 noundef 32) #7
  %3 = icmp eq ptr %2, null
  br i1 %3, label %4, label %lean_alloc_closure.exit

4:                                                ; preds = %1
  tail call void @lean_internal_panic_out_of_memory() #8
  unreachable

lean_alloc_closure.exit:                          ; preds = %1
  %5 = getelementptr inbounds nuw i8, ptr %2, i64 4
  store i32 1, ptr %2, align 4, !tbaa !4
  store i32 -184549344, ptr %5, align 4
  %6 = getelementptr inbounds nuw i8, ptr %2, i64 8
  store ptr @l_Lean_ScopedEnvExtension_instInhabitedDescr___rarg___lambda__3___boxed, ptr %6, align 8, !tbaa !9
  %7 = getelementptr inbounds nuw i8, ptr %2, i64 16
  store i16 2, ptr %7, align 8, !tbaa !14
  %8 = getelementptr inbounds nuw i8, ptr %2, i64 18
  store i16 1, ptr %8, align 2, !tbaa !14
  %9 = getelementptr inbounds nuw i8, ptr %2, i64 24
  store ptr %0, ptr %9, align 8, !tbaa !9
  %10 = load ptr, ptr @l_Lean_ScopedEnvExtension_instInhabitedDescr___rarg___closed__1, align 8, !tbaa !9
  %11 = load ptr, ptr @l_Lean_ScopedEnvExtension_instInhabitedDescr___rarg___closed__2, align 8, !tbaa !9
  %12 = load ptr, ptr @l_Lean_ScopedEnvExtension_instInhabitedDescr___rarg___closed__3, align 8, !tbaa !9
  %13 = load ptr, ptr @l_Lean_ScopedEnvExtension_instInhabitedDescr___rarg___closed__4, align 8, !tbaa !9
  tail call void @lean_inc_heartbeat() #7
  %14 = tail call noalias ptr @mi_malloc_small(i64 noundef 56) #7
  %15 = icmp eq ptr %14, null
  br i1 %15, label %16, label %lean_alloc_ctor.exit

16:                                               ; preds = %lean_alloc_closure.exit
  tail call void @lean_internal_panic_out_of_memory() #8
  unreachable

lean_alloc_ctor.exit:                             ; preds = %lean_alloc_closure.exit
  %17 = getelementptr inbounds nuw i8, ptr %14, i64 4
  store i32 1, ptr %14, align 4, !tbaa !4
  store i32 393272, ptr %17, align 4
  %18 = getelementptr inbounds nuw i8, ptr %14, i64 8
  store ptr inttoptr (i64 1 to ptr), ptr %18, align 8, !tbaa !9
  %19 = getelementptr inbounds nuw i8, ptr %14, i64 16
  store ptr %10, ptr %19, align 8, !tbaa !9
  %20 = getelementptr inbounds nuw i8, ptr %14, i64 24
  store ptr %11, ptr %20, align 8, !tbaa !9
  %21 = getelementptr inbounds nuw i8, ptr %14, i64 32
  store ptr %2, ptr %21, align 8, !tbaa !9
  %22 = getelementptr inbounds nuw i8, ptr %14, i64 40
  store ptr %12, ptr %22, align 8, !tbaa !9
  %23 = getelementptr inbounds nuw i8, ptr %14, i64 48
  store ptr %13, ptr %23, align 8, !tbaa !9
  ret ptr %14
}